target datalayout = "e-m:e-p270:32:32-p271:32:32-p272:64:64-i64:64-i128:128-f80:128-n8:16:32:64-S128"
target triple = "x86_64-pc-linux-gnu"

%"struct.cv::HWFeatures" = type { [513 x i8] }
%"struct.cv::details::FPDenormalsModeState" = type { [16 x i32] }

@_ZN2cvL15featuresEnabledE = internal global %"struct.cv::HWFeatures" zeroinitializer, align 1

; Function Attrs: mustprogress nounwind uwtable
define noundef i32 @_ZN2cv7details20saveFPDenormalsStateERNS0_20FPDenormalsModeStateE(ptr noundef nonnull align 4 dereferenceable(64) %0) #5 {
  %2 = alloca ptr, align 8
  %3 = alloca i32, align 4
  %4 = alloca i32, align 4
  %5 = alloca i32, align 4
  %6 = alloca i32, align 4
  store ptr %0, ptr %2, align 8, !tbaa !190
  call void @llvm.lifetime.start.p0(i64 4, ptr %3) #3
  store i32 32768, ptr %3, align 4, !tbaa !29
  %7 = load i8, ptr getelementptr inbounds nuw ([513 x i8], ptr @_ZN2cvL15featuresEnabledE, i64 0, i64 4), align 1, !tbaa !8, !range !30, !noundef !31
  %8 = trunc i8 %7 to i1
  br i1 %8, label %9, label %12

9:                                                ; preds = %1
  %10 = load i32, ptr %3, align 4, !tbaa !29
  %11 = or i32 %10, 64
  store i32 %11, ptr %3, align 4, !tbaa !29
  br label %12

12:                                               ; preds = %9, %1
  call void @llvm.lifetime.start.p0(i64 4, ptr %4) #3
  call void @llvm.x86.sse.stmxcsr(ptr %5)
  %13 = load i32, ptr %5, align 4
  store i32 %13, ptr %4, align 4, !tbaa !29
  call void @llvm.lifetime.start.p0(i64 4, ptr %6) #3
  %14 = load i32, ptr %4, align 4, !tbaa !29
  %15 = load i32, ptr %3, align 4, !tbaa !29
  %16 = and i32 %14, %15
  store i32 %16, ptr %6, align 4, !tbaa !29
  %17 = load i32, ptr %3, align 4, !tbaa !29
  %18 = load ptr, ptr %2, align 8, !tbaa !190
  %19 = getelementptr inbounds nuw %"struct.cv::details::FPDenormalsModeState", ptr %18, i32 0, i32 0
  %20 = getelementptr inbounds [16 x i32], ptr %19, i64 0, i64 0
  store i32 %17, ptr %20, align 4, !tbaa !29
  %21 = load i32, ptr %6, align 4, !tbaa !29
  %22 = load ptr, ptr %2, align 8, !tbaa !190
  %23 = getelementptr inbounds nuw %"struct.cv::details::FPDenormalsModeState", ptr %22, i32 0, i32 0
  %24 = getelementptr inbounds [16 x i32], ptr %23, i64 0, i64 1
  store i32 %21, ptr %24, align 4, !tbaa !29
  call void @llvm.lifetime.end.p0(i64 4, ptr %6) #3
  call void @llvm.lifetime.end.p0(i64 4, ptr %4) #3
  call void @llvm.lifetime.end.p0(i64 4, ptr %3) #3
  ret i32 2
}