; Function Attrs: mustprogress nounwind memory(read, argmem: write, inaccessiblemem: none) uwtable
define noundef i32 @_ZN2cv7details20saveFPDenormalsStateERNS0_20FPDenormalsModeStateE(ptr noundef nonnull writeonly align 4 captures(none) dereferenceable(64) initializes((0, 8)) %0) local_unnamed_addr #35 {
  %2 = alloca i32, align 4
  %3 = load i8, ptr getelementptr inbounds nuw (i8, ptr @_ZN2cvL15featuresEnabledE, i64 4), align 1, !tbaa !14, !range !80, !noundef !81
  %4 = trunc nuw i8 %3 to i1
  %spec.select = select i1 %4, i32 32832, i32 32768
  call void @llvm.x86.sse.stmxcsr(ptr nonnull %2)
  %5 = load i32, ptr %2, align 4
  %6 = and i32 %5, %spec.select
  store i32 %spec.select, ptr %0, align 4, !tbaa !83
  %7 = getelementptr inbounds nuw i8, ptr %0, i64 4
  store i32 %6, ptr %7, align 4, !tbaa !83
  ret i32 2
}